target datalayout = "e-m:e-p270:32:32-p271:32:32-p272:64:64-i64:64-i128:128-f80:128-n8:16:32:64-S128"
target triple = "x86_64-pc-linux-gnu"

%"struct.icu_77::CollationData" = type <{ ptr, ptr, ptr, ptr, ptr, ptr, ptr, i32, i32, i32, i32, ptr, ptr, ptr, i32, i32, ptr, ptr, i32, [4 x i8], ptr, i32, [4 x i8] }>

; Function Attrs: mustprogress nounwind uwtable
define noundef i32 @_ZNK6icu_7713CollationData18getGroupForPrimaryEj(ptr noundef nonnull align 8 dereferenceable(140) %0, i32 noundef %1) #3 align 2 {
  %3 = alloca i32, align 4
  %4 = alloca ptr, align 8
  %5 = alloca i32, align 4
  %6 = alloca i32, align 4
  %7 = alloca i32, align 4
  %8 = alloca i32, align 4
  %9 = alloca i32, align 4
  store ptr %0, ptr %4, align 8, !tbaa !3
  store i32 %1, ptr %5, align 4, !tbaa !8
  %10 = load ptr, ptr %4, align 8
  %11 = load i32, ptr %5, align 4, !tbaa !8
  %12 = lshr i32 %11, 16
  store i32 %12, ptr %5, align 4, !tbaa !8
  %13 = load i32, ptr %5, align 4, !tbaa !8
  %14 = getelementptr inbounds nuw %"struct.icu_77::CollationData", ptr %10, i32 0, i32 17
  %15 = load ptr, ptr %14, align 8, !tbaa !38
  %16 = getelementptr inbounds i16, ptr %15, i64 1
  %17 = load i16, ptr %16, align 2, !tbaa !35
  %18 = zext i16 %17 to i32
  %19 = icmp ult i32 %13, %18
  br i1 %19, label %32, label %20

20:                                               ; preds = %2
  %21 = getelementptr inbounds nuw %"struct.icu_77::CollationData", ptr %10, i32 0, i32 17
  %22 = load ptr, ptr %21, align 8, !tbaa !38
  %23 = getelementptr inbounds nuw %"struct.icu_77::CollationData", ptr %10, i32 0, i32 18
  %24 = load i32, ptr %23, align 8, !tbaa !41
  %25 = sub nsw i32 %24, 1
  %26 = sext i32 %25 to i64
  %27 = getelementptr inbounds i16, ptr %22, i64 %26
  %28 = load i16, ptr %27, align 2, !tbaa !35
  %29 = zext i16 %28 to i32
  %30 = load i32, ptr %5, align 4, !tbaa !8
  %31 = icmp ule i32 %29, %30
  br i1 %31, label %32, label %33

32:                                               ; preds = %20, %2
  store i32 -1, ptr %3, align 4
  br label %102

33:                                               ; preds = %20
  call void @llvm.lifetime.start.p0(i64 4, ptr %6) #7
  store i32 1, ptr %6, align 4, !tbaa !8
  br label %34

34:                                               ; preds = %45, %33
  %35 = load i32, ptr %5, align 4, !tbaa !8
  %36 = getelementptr inbounds nuw %"struct.icu_77::CollationData", ptr %10, i32 0, i32 17
  %37 = load ptr, ptr %36, align 8, !tbaa !38
  %38 = load i32, ptr %6, align 4, !tbaa !8
  %39 = add nsw i32 %38, 1
  %40 = sext i32 %39 to i64
  %41 = getelementptr inbounds i16, ptr %37, i64 %40
  %42 = load i16, ptr %41, align 2, !tbaa !35
  %43 = zext i16 %42 to i32
  %44 = icmp uge i32 %35, %43
  br i1 %44, label %45, label %48

45:                                               ; preds = %34
  %46 = load i32, ptr %6, align 4, !tbaa !8
  %47 = add nsw i32 %46, 1
  store i32 %47, ptr %6, align 4, !tbaa !8
  br label %34, !llvm.loop !42

48:                                               ; preds = %34
  call void @llvm.lifetime.start.p0(i64 4, ptr %7) #7
  store i32 0, ptr %7, align 4, !tbaa !8
  br label %49

49:                                               ; preds = %68, %48
  %50 = load i32, ptr %7, align 4, !tbaa !8
  %51 = getelementptr inbounds nuw %"struct.icu_77::CollationData", ptr %10, i32 0, i32 15
  %52 = load i32, ptr %51, align 4, !tbaa !39
  %53 = icmp slt i32 %50, %52
  br i1 %53, label %55, label %54

54:                                               ; preds = %49
  store i32 4, ptr %8, align 4
  br label %71

55:                                               ; preds = %49
  %56 = getelementptr inbounds nuw %"struct.icu_77::CollationData", ptr %10, i32 0, i32 16
  %57 = load ptr, ptr %56, align 8, !tbaa !40
  %58 = load i32, ptr %7, align 4, !tbaa !8
  %59 = sext i32 %58 to i64
  %60 = getelementptr inbounds i16, ptr %57, i64 %59
  %61 = load i16, ptr %60, align 2, !tbaa !35
  %62 = zext i16 %61 to i32
  %63 = load i32, ptr %6, align 4, !tbaa !8
  %64 = icmp eq i32 %62, %63
  br i1 %64, label %65, label %67

65:                                               ; preds = %55
  %66 = load i32, ptr %7, align 4, !tbaa !8
  store i32 %66, ptr %3, align 4
  store i32 1, ptr %8, align 4
  br label %71

67:                                               ; preds = %55
  br label %68

68:                                               ; preds = %67
  %69 = load i32, ptr %7, align 4, !tbaa !8
  %70 = add nsw i32 %69, 1
  store i32 %70, ptr %7, align 4, !tbaa !8
  br label %49, !llvm.loop !43

71:                                               ; preds = %65, %54
  call void @llvm.lifetime.end.p0(i64 4, ptr %7) #7
  %72 = load i32, ptr %8, align 4
  switch i32 %72, label %101 [
    i32 4, label %73
  ]

73:                                               ; preds = %71
  call void @llvm.lifetime.start.p0(i64 4, ptr %9) #7
  store i32 0, ptr %9, align 4, !tbaa !8
  br label %74

74:                                               ; preds = %95, %73
  %75 = load i32, ptr %9, align 4, !tbaa !8
  %76 = icmp slt i32 %75, 8
  br i1 %76, label %78, label %77

77:                                               ; preds = %74
  store i32 7, ptr %8, align 4
  br label %98

78:                                               ; preds = %74
  %79 = getelementptr inbounds nuw %"struct.icu_77::CollationData", ptr %10, i32 0, i32 16
  %80 = load ptr, ptr %79, align 8, !tbaa !40
  %81 = getelementptr inbounds nuw %"struct.icu_77::CollationData", ptr %10, i32 0, i32 15
  %82 = load i32, ptr %81, align 4, !tbaa !39
  %83 = load i32, ptr %9, align 4, !tbaa !8
  %84 = add nsw i32 %82, %83
  %85 = sext i32 %84 to i64
  %86 = getelementptr inbounds i16, ptr %80, i64 %85
  %87 = load i16, ptr %86, align 2, !tbaa !35
  %88 = zext i16 %87 to i32
  %89 = load i32, ptr %6, align 4, !tbaa !8
  %90 = icmp eq i32 %88, %89
  br i1 %90, label %91, label %94

91:                                               ; preds = %78
  %92 = load i32, ptr %9, align 4, !tbaa !8
  %93 = add nsw i32 4096, %92
  store i32 %93, ptr %3, align 4
  store i32 1, ptr %8, align 4
  br label %98

94:                                               ; preds = %78
  br label %95

95:                                               ; preds = %94
  %96 = load i32, ptr %9, align 4, !tbaa !8
  %97 = add nsw i32 %96, 1
  store i32 %97, ptr %9, align 4, !tbaa !8
  br label %74, !llvm.loop !44

98:                                               ; preds = %91, %77
  call void @llvm.lifetime.end.p0(i64 4, ptr %9) #7
  %99 = load i32, ptr %8, align 4
  switch i32 %99, label %101 [
    i32 7, label %100
  ]

100:                                              ; preds = %98
  store i32 -1, ptr %3, align 4
  store i32 1, ptr %8, align 4
  br label %101

101:                                              ; preds = %100, %98, %71
  call void @llvm.lifetime.end.p0(i64 4, ptr %6) #7
  br label %102

102:                                              ; preds = %101, %32
  %103 = load i32, ptr %3, align 4
  ret i32 %103
}