; Function Attrs: mustprogress nofree norecurse nosync nounwind willreturn memory(read, inaccessiblemem: none) uwtable
define noundef i32 @_ZNK6icu_7713CollationData18getGroupForPrimaryEj(ptr noundef nonnull readonly align 8 captures(none) dereferenceable(140) %0, i32 noundef %1) local_unnamed_addr #0 align 2 {
  %3 = lshr i32 %1, 16
  %4 = getelementptr inbounds nuw i8, ptr %0, i64 112
  %5 = load ptr, ptr %4, align 8, !tbaa !38
  %6 = getelementptr inbounds nuw i8, ptr %5, i64 2
  %7 = load i16, ptr %6, align 2, !tbaa !29
  %8 = zext i16 %7 to i32
  %9 = icmp samesign ult i32 %3, %8
  br i1 %9, label %.loopexit, label %10

10:                                               ; preds = %2
  %11 = getelementptr inbounds nuw i8, ptr %0, i64 120
  %12 = load i32, ptr %11, align 8, !tbaa !39
  %13 = sext i32 %12 to i64
  %14 = getelementptr i16, ptr %5, i64 %13
  %15 = getelementptr i8, ptr %14, i64 -2
  %16 = load i16, ptr %15, align 2, !tbaa !29
  %17 = zext i16 %16 to i32
  %.not = icmp samesign ult i32 %3, %17
  br i1 %.not, label %.preheader29.preheader, label %.loopexit

.preheader29.preheader:                           ; preds = %10
  %18 = trunc nuw i32 %3 to i16
  br label %.preheader29

.preheader29:                                     ; preds = %.preheader29.preheader, %.preheader29
  %indvars.iv = phi i64 [ 1, %.preheader29.preheader ], [ %indvars.iv.next, %.preheader29 ]
  %indvars.iv.next = add nuw nsw i64 %indvars.iv, 1
  %19 = getelementptr inbounds nuw i16, ptr %5, i64 %indvars.iv.next
  %20 = load i16, ptr %19, align 2, !tbaa !29
  %.not26 = icmp ugt i16 %20, %18
  br i1 %.not26, label %.preheader, label %.preheader29, !llvm.loop !40

.preheader:                                       ; preds = %.preheader29
  %21 = getelementptr inbounds nuw i8, ptr %0, i64 100
  %22 = load i32, ptr %21, align 4, !tbaa !36
  %.not2733 = icmp sgt i32 %22, 0
  %23 = getelementptr inbounds nuw i8, ptr %0, i64 104
  %24 = load ptr, ptr %23, align 8, !tbaa !37
  br i1 %.not2733, label %.lr.ph, label %.critedge.preheader

.lr.ph:                                           ; preds = %.preheader
  %wide.trip.count = zext nneg i32 %22 to i64
  br label %26

.critedge.preheader:                              ; preds = %31, %.preheader
  %25 = sext i32 %22 to i64
  %invariant.gep = getelementptr i16, ptr %24, i64 %25
  br label %32

26:                                               ; preds = %.lr.ph, %31
  %indvars.iv40 = phi i64 [ 0, %.lr.ph ], [ %indvars.iv.next41, %31 ]
  %27 = getelementptr inbounds nuw i16, ptr %24, i64 %indvars.iv40
  %28 = load i16, ptr %27, align 2, !tbaa !29
  %29 = zext i16 %28 to i64
  %30 = icmp eq i64 %indvars.iv, %29
  br i1 %30, label %.loopexit.loopexit36, label %31

31:                                               ; preds = %26
  %indvars.iv.next41 = add nuw nsw i64 %indvars.iv40, 1
  %exitcond.not = icmp eq i64 %indvars.iv.next41, %wide.trip.count
  br i1 %exitcond.not, label %.critedge.preheader, label %26, !llvm.loop !41

32:                                               ; preds = %.critedge.preheader, %.critedge
  %indvars.iv43 = phi i64 [ 0, %.critedge.preheader ], [ %indvars.iv.next44, %.critedge ]
  %gep = getelementptr i16, ptr %invariant.gep, i64 %indvars.iv43
  %33 = load i16, ptr %gep, align 2, !tbaa !29
  %34 = zext i16 %33 to i64
  %35 = icmp eq i64 %indvars.iv, %34
  br i1 %35, label %36, label %.critedge

36:                                               ; preds = %32
  %37 = trunc nuw nsw i64 %indvars.iv43 to i32
  %38 = or disjoint i32 %37, 4096
  br label %.loopexit

.critedge:                                        ; preds = %32
  %indvars.iv.next44 = add nuw nsw i64 %indvars.iv43, 1
  %exitcond46 = icmp eq i64 %indvars.iv.next44, 8
  br i1 %exitcond46, label %.loopexit, label %32, !llvm.loop !42

.loopexit.loopexit36:                             ; preds = %26
  %39 = trunc nuw nsw i64 %indvars.iv40 to i32
  br label %.loopexit

.loopexit:                                        ; preds = %.critedge, %.loopexit.loopexit36, %36, %2, %10
  %.023 = phi i32 [ -1, %10 ], [ -1, %2 ], [ %38, %36 ], [ %39, %.loopexit.loopexit36 ], [ -1, %.critedge ]
  ret i32 %.023
}